; Function Attrs: mustprogress nounwind uwtable
define hidden void @_ZN12mpff_managerD2Ev(ptr noundef nonnull align 8 dereferenceable(89) %0) unnamed_addr #5 align 2 personality ptr @__gxx_personality_v0 {
  %2 = getelementptr inbounds nuw i8, ptr %0, i64 80
  %3 = load i32, ptr %2, align 8
  %.not.i = icmp ult i32 %3, 2
  br i1 %.not.i, label %_ZN12mpff_manager3delER4mpff.exit, label %4

4:                                                ; preds = %1
  %5 = lshr i32 %3, 1
  %6 = invoke noundef zeroext i1 @_ZN6memory16is_out_of_memoryEv()
          to label %.noexc unwind label %65

.noexc:                                           ; preds = %4
  br i1 %6, label %_ZN6id_gen7recycleEj.exit.i, label %7

7:                                                ; preds = %.noexc
  %8 = getelementptr inbounds nuw i8, ptr %0, i64 32
  %9 = load ptr, ptr %8, align 8, !tbaa !3
  %10 = icmp eq ptr %9, null
  br i1 %10, label %17, label %11

11:                                               ; preds = %7
  %12 = getelementptr inbounds i8, ptr %9, i64 -4
  %13 = load i32, ptr %12, align 4, !tbaa !21
  %14 = getelementptr inbounds i8, ptr %9, i64 -8
  %15 = load i32, ptr %14, align 4, !tbaa !21
  %16 = icmp eq i32 %13, %15
  br i1 %16, label %17, label %_ZN6vectorIjLb0EjE9push_backERKj.exit.i.i

17:                                               ; preds = %11, %7
  invoke void @_ZN6vectorIjLb0EjE13expand_vectorEv(ptr noundef nonnull align 8 dereferenceable(8) %8)
          to label %.noexc3 unwind label %65

.noexc3:                                          ; preds = %17
  %.pre.i.i.i = load ptr, ptr %8, align 8, !tbaa !3
  %.phi.trans.insert.i.i.i = getelementptr inbounds i8, ptr %.pre.i.i.i, i64 -4
  %.pre2.i.i.i = load i32, ptr %.phi.trans.insert.i.i.i, align 4, !tbaa !21
  br label %_ZN6vectorIjLb0EjE9push_backERKj.exit.i.i

_ZN6vectorIjLb0EjE9push_backERKj.exit.i.i:        ; preds = %.noexc3, %11
  %18 = phi i32 [ %.pre2.i.i.i, %.noexc3 ], [ %13, %11 ]
  %19 = phi ptr [ %.pre.i.i.i, %.noexc3 ], [ %9, %11 ]
  %20 = getelementptr inbounds i8, ptr %19, i64 -4
  %21 = zext i32 %18 to i64
  %22 = getelementptr inbounds nuw i32, ptr %19, i64 %21
  store i32 %5, ptr %22, align 4, !tbaa !21
  %23 = add i32 %18, 1
  store i32 %23, ptr %20, align 4, !tbaa !21
  br label %_ZN6id_gen7recycleEj.exit.i

_ZN6id_gen7recycleEj.exit.i:                      ; preds = %_ZN6vectorIjLb0EjE9push_backERKj.exit.i.i, %.noexc
  %24 = getelementptr inbounds nuw i8, ptr %0, i64 8
  %25 = load ptr, ptr %24, align 8, !tbaa !3
  %26 = load i32, ptr %2, align 8
  %27 = lshr i32 %26, 1
  %28 = load i32, ptr %0, align 8, !tbaa !13
  %29 = mul i32 %27, %28
  %30 = zext i32 %29 to i64
  %31 = getelementptr inbounds nuw i32, ptr %25, i64 %30
  %.not10.i = icmp eq i32 %28, 0
  br i1 %.not10.i, label %_ZN12mpff_manager3delER4mpff.exit, label %.lr.ph.i

.lr.ph.i:                                         ; preds = %_ZN6id_gen7recycleEj.exit.i, %.lr.ph.i
  %indvars.iv.i = phi i64 [ %indvars.iv.next.i, %.lr.ph.i ], [ 0, %_ZN6id_gen7recycleEj.exit.i ]
  %32 = getelementptr inbounds nuw i32, ptr %31, i64 %indvars.iv.i
  store i32 0, ptr %32, align 4, !tbaa !21
  %indvars.iv.next.i = add nuw nsw i64 %indvars.iv.i, 1
  %33 = load i32, ptr %0, align 8, !tbaa !13
  %34 = zext i32 %33 to i64
  %35 = icmp samesign ult i64 %indvars.iv.next.i, %34
  br i1 %35, label %.lr.ph.i, label %_ZN12mpff_manager3delER4mpff.exit, !llvm.loop !37

_ZN12mpff_manager3delER4mpff.exit:                ; preds = %.lr.ph.i, %_ZN6id_gen7recycleEj.exit.i, %1
  %36 = getelementptr inbounds nuw i8, ptr %0, i64 72
  %37 = load ptr, ptr %36, align 8, !tbaa !3
  %.not.i.i = icmp eq ptr %37, null
  br i1 %.not.i.i, label %_ZN6vectorIjLb0EjED2Ev.exit.preheader, label %38

38:                                               ; preds = %_ZN12mpff_manager3delER4mpff.exit
  %39 = getelementptr inbounds i8, ptr %37, i64 -8
  invoke void @_ZN6memory10deallocateEPv(ptr noundef nonnull %39)
          to label %_ZN6vectorIjLb0EjED2Ev.exit.preheader unwind label %40

_ZN6vectorIjLb0EjED2Ev.exit.preheader:            ; preds = %_ZN12mpff_manager3delER4mpff.exit, %38
  br label %_ZN6vectorIjLb0EjED2Ev.exit

40:                                               ; preds = %38
  %41 = landingpad { ptr, i32 }
          catch ptr null
  %42 = extractvalue { ptr, i32 } %41, 0
  tail call void @__clang_call_terminate(ptr %42) #28
  unreachable

_ZN6vectorIjLb0EjED2Ev.exit:                      ; preds = %_ZN6vectorIjLb0EjED2Ev.exit.preheader, %_ZN6vectorIjLb0EjED2Ev.exit5
  %.idx = phi i64 [ %.add, %_ZN6vectorIjLb0EjED2Ev.exit5 ], [ 72, %_ZN6vectorIjLb0EjED2Ev.exit.preheader ]
  %.add = add nsw i64 %.idx, -8
  %.ptr1 = getelementptr inbounds i8, ptr %0, i64 %.add
  %43 = load ptr, ptr %.ptr1, align 8, !tbaa !3
  %.not.i.i4 = icmp eq ptr %43, null
  br i1 %.not.i.i4, label %_ZN6vectorIjLb0EjED2Ev.exit5, label %44

44:                                               ; preds = %_ZN6vectorIjLb0EjED2Ev.exit
  %45 = getelementptr inbounds i8, ptr %43, i64 -8
  invoke void @_ZN6memory10deallocateEPv(ptr noundef nonnull %45)
          to label %_ZN6vectorIjLb0EjED2Ev.exit5 unwind label %46

46:                                               ; preds = %44
  %47 = landingpad { ptr, i32 }
          catch ptr null
  %48 = extractvalue { ptr, i32 } %47, 0
  tail call void @__clang_call_terminate(ptr %48) #28
  unreachable

_ZN6vectorIjLb0EjED2Ev.exit5:                     ; preds = %_ZN6vectorIjLb0EjED2Ev.exit, %44
  %49 = icmp eq i64 %.add, 40
  br i1 %49, label %50, label %_ZN6vectorIjLb0EjED2Ev.exit

50:                                               ; preds = %_ZN6vectorIjLb0EjED2Ev.exit5
  %51 = getelementptr inbounds nuw i8, ptr %0, i64 32
  %52 = load ptr, ptr %51, align 8, !tbaa !3
  %.not.i.i.i = icmp eq ptr %52, null
  br i1 %.not.i.i.i, label %_ZN6id_genD2Ev.exit, label %53

53:                                               ; preds = %50
  %54 = getelementptr inbounds i8, ptr %52, i64 -8
  invoke void @_ZN6memory10deallocateEPv(ptr noundef nonnull %54)
          to label %_ZN6id_genD2Ev.exit unwind label %55

55:                                               ; preds = %53
  %56 = landingpad { ptr, i32 }
          catch ptr null
  %57 = extractvalue { ptr, i32 } %56, 0
  tail call void @__clang_call_terminate(ptr %57) #28
  unreachable

_ZN6id_genD2Ev.exit:                              ; preds = %50, %53
  %58 = getelementptr inbounds nuw i8, ptr %0, i64 8
  %59 = load ptr, ptr %58, align 8, !tbaa !3
  %.not.i.i6 = icmp eq ptr %59, null
  br i1 %.not.i.i6, label %_ZN6vectorIjLb0EjED2Ev.exit7, label %60

60:                                               ; preds = %_ZN6id_genD2Ev.exit
  %61 = getelementptr inbounds i8, ptr %59, i64 -8
  invoke void @_ZN6memory10deallocateEPv(ptr noundef nonnull %61)
          to label %_ZN6vectorIjLb0EjED2Ev.exit7 unwind label %62

62:                                               ; preds = %60
  %63 = landingpad { ptr, i32 }
          catch ptr null
  %64 = extractvalue { ptr, i32 } %63, 0
  tail call void @__clang_call_terminate(ptr %64) #28
  unreachable

_ZN6vectorIjLb0EjED2Ev.exit7:                     ; preds = %_ZN6id_genD2Ev.exit, %60
  ret void

65:                                               ; preds = %17, %4
  %66 = landingpad { ptr, i32 }
          catch ptr null
  %67 = extractvalue { ptr, i32 } %66, 0
  tail call void @__clang_call_terminate(ptr %67) #28
  unreachable
}